target datalayout = "e-m:e-p270:32:32-p271:32:32-p272:64:64-i64:64-i128:128-f80:128-n8:16:32:64-S128"
target triple = "x86_64-pc-linux-gnu"

%struct.BuildCtx = type { ptr, i32, ptr, ptr, ptr, ptr, i64, i32, i32, i32, i32, i32, ptr, ptr, ptr, ptr, ptr, ptr, ptr, ptr, ptr, [200 x %struct.BuildReloc] }
%struct.BuildReloc = type { i32, i32, i32 }

@stderr = external global ptr, align 8
@.str = private unnamed_addr constant [40 x i8] c"Error: cannot write to output file: %s\0A\00", align 1

; Function Attrs: nounwind uwtable
define dso_local void @owrite(ptr noundef %0, ptr noundef %1, i64 noundef %2) #0 {
  %4 = alloca ptr, align 8
  %5 = alloca ptr, align 8
  %6 = alloca i64, align 8
  store ptr %0, ptr %4, align 8, !tbaa !4
  store ptr %1, ptr %5, align 8, !tbaa !36
  store i64 %2, ptr %6, align 8, !tbaa !11
  %7 = load ptr, ptr %5, align 8, !tbaa !36
  %8 = load i64, ptr %6, align 8, !tbaa !11
  %9 = load ptr, ptr %4, align 8, !tbaa !4
  %10 = getelementptr inbounds nuw %struct.BuildCtx, ptr %9, i32 0, i32 2
  %11 = load ptr, ptr %10, align 8, !tbaa !78
  %12 = call i64 @fwrite(ptr noundef %7, i64 noundef 1, i64 noundef %8, ptr noundef %11)
  %13 = load i64, ptr %6, align 8, !tbaa !11
  %14 = icmp ne i64 %12, %13
  br i1 %14, label %15, label %21

15:                                               ; preds = %3
  %16 = load ptr, ptr @stderr, align 8, !tbaa !69
  %17 = call ptr @__errno_location() #15
  %18 = load i32, ptr %17, align 4, !tbaa !9
  %19 = call ptr @strerror(i32 noundef %18) #12
  %20 = call i32 (ptr, ptr, ...) @fprintf(ptr noundef %16, ptr noundef @.str, ptr noundef %19) #12
  call void @exit(i32 noundef 1) #14
  unreachable

21:                                               ; preds = %3
  ret void
}