; Function Attrs: nounwind uwtable
define dso_local void @owrite(ptr noundef readonly captures(none) %0, ptr noundef captures(none) %1, i64 noundef %2) local_unnamed_addr #5 {
  %4 = getelementptr inbounds nuw i8, ptr %0, i64 16
  %5 = load ptr, ptr %4, align 8, !tbaa !70
  %6 = tail call i64 @fwrite(ptr noundef %1, i64 noundef 1, i64 noundef %2, ptr noundef %5)
  %.not = icmp eq i64 %6, %2
  br i1 %.not, label %13, label %7

7:                                                ; preds = %3
  %8 = load ptr, ptr @stderr, align 8, !tbaa !58
  %9 = tail call ptr @__errno_location() #30
  %10 = load i32, ptr %9, align 4, !tbaa !43
  %11 = tail call ptr @strerror(i32 noundef %10) #25
  %12 = tail call i32 (ptr, ptr, ...) @fprintf(ptr noundef %8, ptr noundef nonnull @.str, ptr noundef %11) #31
  tail call void @exit(i32 noundef 1) #24
  unreachable

13:                                               ; preds = %3
  ret void
}